; Function Attrs: nounwind uwtable
define internal i32 @aura_decode_frame(ptr noundef %0, ptr noundef %1, ptr noundef writeonly captures(none) %2, ptr noundef readonly captures(none) %3) #1 {
  %5 = getelementptr inbounds nuw i8, ptr %3, i64 24
  %6 = load ptr, ptr %5, align 8, !tbaa !28
  %7 = getelementptr inbounds nuw i8, ptr %6, i64 16
  %8 = getelementptr inbounds nuw i8, ptr %3, i64 32
  %9 = load i32, ptr %8, align 8, !tbaa !30
  %10 = getelementptr inbounds nuw i8, ptr %0, i64 116
  %11 = load i32, ptr %10, align 4, !tbaa !31
  %12 = getelementptr inbounds nuw i8, ptr %0, i64 112
  %13 = load i32, ptr %12, align 8, !tbaa !4
  %14 = mul nsw i32 %13, %11
  %15 = add nsw i32 %14, 48
  %.not = icmp eq i32 %9, %15
  br i1 %.not, label %17, label %16

16:                                               ; preds = %4
  tail call void (ptr, i32, ptr, ...) @av_log(ptr noundef nonnull %0, i32 noundef 16, ptr noundef nonnull @.str.2, i32 noundef %9, i32 noundef %15) #3
  br label %106

17:                                               ; preds = %4
  %18 = tail call i32 @ff_get_buffer(ptr noundef nonnull %0, ptr noundef %1, i32 noundef 0) #3
  %19 = icmp slt i32 %18, 0
  br i1 %19, label %106, label %20

20:                                               ; preds = %17
  %21 = load i32, ptr %10, align 4, !tbaa !31
  %22 = icmp sgt i32 %21, 0
  br i1 %22, label %.lr.ph107, label %._crit_edge108

.lr.ph107:                                        ; preds = %20
  %23 = getelementptr inbounds nuw i8, ptr %1, i64 16
  %24 = load ptr, ptr %23, align 8, !tbaa !32
  %25 = getelementptr inbounds nuw i8, ptr %1, i64 8
  %26 = load ptr, ptr %25, align 8, !tbaa !32
  %27 = load ptr, ptr %1, align 8, !tbaa !32
  %28 = getelementptr inbounds nuw i8, ptr %6, i64 48
  %29 = getelementptr inbounds nuw i8, ptr %1, i64 64
  %30 = getelementptr inbounds nuw i8, ptr %1, i64 68
  %31 = getelementptr inbounds nuw i8, ptr %1, i64 72
  br label %32

32:                                               ; preds = %.lr.ph107, %._crit_edge
  %.069105 = phi ptr [ %28, %.lr.ph107 ], [ %.1.lcssa, %._crit_edge ]
  %.070104 = phi ptr [ %27, %.lr.ph107 ], [ %93, %._crit_edge ]
  %.072103 = phi i32 [ 0, %.lr.ph107 ], [ %102, %._crit_edge ]
  %.074102 = phi ptr [ %24, %.lr.ph107 ], [ %101, %._crit_edge ]
  %.076101 = phi ptr [ %26, %.lr.ph107 ], [ %97, %._crit_edge ]
  %33 = getelementptr inbounds nuw i8, ptr %.069105, i64 1
  %34 = load i8, ptr %.069105, align 1, !tbaa !33
  %35 = and i8 %34, -16
  store i8 %35, ptr %.076101, align 1, !tbaa !33
  %36 = shl i8 %34, 4
  store i8 %36, ptr %.070104, align 1, !tbaa !33
  %37 = load i8, ptr %33, align 1, !tbaa !33
  %38 = and i8 %37, -16
  store i8 %38, ptr %.074102, align 1, !tbaa !33
  %39 = load i8, ptr %.070104, align 1, !tbaa !33
  %40 = and i8 %37, 15
  %41 = zext nneg i8 %40 to i64
  %42 = getelementptr inbounds nuw i8, ptr %7, i64 %41
  %43 = load i8, ptr %42, align 1, !tbaa !33
  %44 = add i8 %43, %39
  %45 = getelementptr inbounds nuw i8, ptr %.070104, i64 1
  store i8 %44, ptr %45, align 1, !tbaa !33
  %.185 = getelementptr inbounds nuw i8, ptr %.069105, i64 2
  %46 = load i32, ptr %12, align 8, !tbaa !4
  %47 = ashr i32 %46, 1
  %48 = icmp sgt i32 %47, 1
  br i1 %48, label %.lr.ph, label %._crit_edge

.lr.ph:                                           ; preds = %32, %.lr.ph
  %.194 = phi ptr [ %.1, %.lr.ph ], [ %.185, %32 ]
  %.069.pn91 = phi ptr [ %.194, %.lr.ph ], [ %.069105, %32 ]
  %.070.pn90 = phi ptr [ %.17195, %.lr.ph ], [ %.070104, %32 ]
  %.07389 = phi i32 [ %80, %.lr.ph ], [ 1, %32 ]
  %.074.pn88 = phi ptr [ %.17592, %.lr.ph ], [ %.074102, %32 ]
  %.076.pn87 = phi ptr [ %.17793, %.lr.ph ], [ %.076101, %32 ]
  %.17592 = getelementptr inbounds nuw i8, ptr %.074.pn88, i64 1
  %.17793 = getelementptr inbounds nuw i8, ptr %.076.pn87, i64 1
  %.17195 = getelementptr inbounds nuw i8, ptr %.070.pn90, i64 2
  %49 = getelementptr inbounds nuw i8, ptr %.069.pn91, i64 3
  %50 = load i8, ptr %.194, align 1, !tbaa !33
  %51 = load i8, ptr %.076.pn87, align 1, !tbaa !33
  %52 = zext i8 %50 to i32
  %53 = lshr i32 %52, 4
  %54 = zext nneg i32 %53 to i64
  %55 = getelementptr inbounds nuw i8, ptr %7, i64 %54
  %56 = load i8, ptr %55, align 1, !tbaa !33
  %57 = add i8 %56, %51
  store i8 %57, ptr %.17793, align 1, !tbaa !33
  %58 = getelementptr inbounds nuw i8, ptr %.070.pn90, i64 1
  %59 = load i8, ptr %58, align 1, !tbaa !33
  %60 = and i32 %52, 15
  %61 = zext nneg i32 %60 to i64
  %62 = getelementptr inbounds nuw i8, ptr %7, i64 %61
  %63 = load i8, ptr %62, align 1, !tbaa !33
  %64 = add i8 %63, %59
  store i8 %64, ptr %.17195, align 1, !tbaa !33
  %65 = load i8, ptr %49, align 1, !tbaa !33
  %66 = load i8, ptr %.074.pn88, align 1, !tbaa !33
  %67 = zext i8 %65 to i32
  %68 = lshr i32 %67, 4
  %69 = zext nneg i32 %68 to i64
  %70 = getelementptr inbounds nuw i8, ptr %7, i64 %69
  %71 = load i8, ptr %70, align 1, !tbaa !33
  %72 = add i8 %71, %66
  store i8 %72, ptr %.17592, align 1, !tbaa !33
  %73 = load i8, ptr %.17195, align 1, !tbaa !33
  %74 = and i32 %67, 15
  %75 = zext nneg i32 %74 to i64
  %76 = getelementptr inbounds nuw i8, ptr %7, i64 %75
  %77 = load i8, ptr %76, align 1, !tbaa !33
  %78 = add i8 %77, %73
  %79 = getelementptr inbounds nuw i8, ptr %.070.pn90, i64 3
  store i8 %78, ptr %79, align 1, !tbaa !33
  %80 = add nuw nsw i32 %.07389, 1
  %.1 = getelementptr inbounds nuw i8, ptr %.194, i64 2
  %81 = load i32, ptr %12, align 8, !tbaa !4
  %82 = ashr i32 %81, 1
  %83 = icmp slt i32 %80, %82
  br i1 %83, label %.lr.ph, label %._crit_edge, !llvm.loop !34

._crit_edge:                                      ; preds = %.lr.ph, %32
  %84 = phi ptr [ %.074102, %32 ], [ %.17592, %.lr.ph ]
  %85 = phi ptr [ %.076101, %32 ], [ %.17793, %.lr.ph ]
  %.1.lcssa = phi ptr [ %.185, %32 ], [ %.1, %.lr.ph ]
  %86 = phi ptr [ %.070104, %32 ], [ %.17195, %.lr.ph ]
  %.lcssa82 = phi i32 [ %46, %32 ], [ %81, %.lr.ph ]
  %.lcssa = phi i32 [ %47, %32 ], [ %82, %.lr.ph ]
  %87 = getelementptr inbounds nuw i8, ptr %84, i64 1
  %88 = getelementptr inbounds nuw i8, ptr %85, i64 1
  %89 = getelementptr inbounds nuw i8, ptr %86, i64 2
  %90 = load i32, ptr %29, align 8, !tbaa !36
  %91 = sub nsw i32 %90, %.lcssa82
  %92 = sext i32 %91 to i64
  %93 = getelementptr inbounds i8, ptr %89, i64 %92
  %94 = load i32, ptr %30, align 4, !tbaa !36
  %95 = sub nsw i32 %94, %.lcssa
  %96 = sext i32 %95 to i64
  %97 = getelementptr inbounds i8, ptr %88, i64 %96
  %98 = load i32, ptr %31, align 8, !tbaa !36
  %99 = sub nsw i32 %98, %.lcssa
  %100 = sext i32 %99 to i64
  %101 = getelementptr inbounds i8, ptr %87, i64 %100
  %102 = add nuw nsw i32 %.072103, 1
  %103 = load i32, ptr %10, align 4, !tbaa !31
  %104 = icmp slt i32 %102, %103
  br i1 %104, label %32, label %._crit_edge108, !llvm.loop !37

._crit_edge108:                                   ; preds = %._crit_edge, %20
  store i32 1, ptr %2, align 4, !tbaa !36
  %105 = load i32, ptr %8, align 8, !tbaa !30
  br label %106

106:                                              ; preds = %17, %._crit_edge108, %16
  %.0 = phi i32 [ -1094995529, %16 ], [ %105, %._crit_edge108 ], [ %18, %17 ]
  ret i32 %.0
}